target datalayout = "e-m:e-p270:32:32-p271:32:32-p272:64:64-i64:64-i128:128-f80:128-n8:16:32:64-S128"
target triple = "x86_64-pc-linux-gnu"

%struct.TclStubs = type { i32, ptr, ptr, ptr, ptr, ptr, ptr, ptr, ptr, ptr, ptr, ptr, ptr, ptr, ptr, ptr, ptr, ptr, ptr, ptr, ptr, ptr, ptr, ptr, ptr, ptr, ptr, ptr, ptr, ptr, ptr, ptr, ptr, ptr, ptr, ptr, ptr, ptr, ptr, ptr, ptr, ptr, ptr, ptr, ptr, ptr, ptr, ptr, ptr, ptr, ptr, ptr, ptr, ptr, ptr, ptr, ptr, ptr, ptr, ptr, ptr, ptr, ptr, ptr, ptr, ptr, ptr, ptr, ptr, ptr, ptr, ptr, ptr, ptr, ptr, ptr, ptr, ptr, ptr, ptr, ptr, ptr, ptr, ptr, ptr, ptr, ptr, ptr, ptr, ptr, ptr, ptr, ptr, ptr, ptr, ptr, ptr, ptr, ptr, ptr, ptr, ptr, ptr, ptr, ptr, ptr, ptr, ptr, ptr, ptr, ptr, ptr, ptr, ptr, ptr, ptr, ptr, ptr, ptr, ptr, ptr, ptr, ptr, ptr, ptr, ptr, ptr, ptr, ptr, ptr, ptr, ptr, ptr, ptr, ptr, ptr, ptr, ptr, ptr, ptr, ptr, ptr, ptr, ptr, ptr, ptr, ptr, ptr, ptr, ptr, ptr, ptr, ptr, ptr, ptr, ptr, ptr, ptr, ptr, ptr, ptr, ptr, ptr, ptr, ptr, ptr, ptr, ptr, ptr, ptr, ptr, ptr, ptr, ptr, ptr, ptr, ptr, ptr, ptr, ptr, ptr, ptr, ptr, ptr, ptr, ptr, ptr, ptr, ptr, ptr, ptr, ptr, ptr, ptr, ptr, ptr, ptr, ptr, ptr, ptr, ptr, ptr, ptr, ptr, ptr, ptr, ptr, ptr, ptr, ptr, ptr, ptr, ptr, ptr, ptr, ptr, ptr, ptr, ptr, ptr, ptr, ptr, ptr, ptr, ptr, ptr, ptr, ptr, ptr, ptr, ptr, ptr, ptr, ptr, ptr, ptr, ptr, ptr, ptr, ptr, ptr, ptr, ptr, ptr, ptr, ptr, ptr, ptr, ptr, ptr, ptr, ptr, ptr, ptr, ptr, ptr, ptr, ptr, ptr, ptr, ptr, ptr, ptr, ptr, ptr, ptr, ptr, ptr, ptr, ptr, ptr, ptr, ptr, ptr, ptr, ptr, ptr, ptr, ptr, ptr, ptr, ptr, ptr, ptr, ptr, ptr, ptr, ptr, ptr, ptr, ptr, ptr, ptr, ptr, ptr, ptr, ptr, ptr, ptr, ptr, ptr, ptr, ptr, ptr, ptr, ptr, ptr, ptr, ptr, ptr, ptr, ptr, ptr, ptr, ptr, ptr, ptr, ptr, ptr, ptr, ptr, ptr, ptr, ptr, ptr, ptr, ptr, ptr, ptr, ptr, ptr, ptr, ptr, ptr, ptr, ptr, ptr, ptr, ptr, ptr, ptr, ptr, ptr, ptr, ptr, ptr, ptr, ptr, ptr, ptr, ptr, ptr, ptr, ptr, ptr, ptr, ptr, ptr, ptr, ptr, ptr, ptr, ptr, ptr, ptr, ptr, ptr, ptr, ptr, ptr, ptr, ptr, ptr, ptr, ptr, ptr, ptr, ptr, ptr, ptr, ptr, ptr, ptr, ptr, ptr, ptr, ptr, ptr, ptr, ptr, ptr, ptr, ptr, ptr, ptr, ptr, ptr, ptr, ptr, ptr, ptr, ptr, ptr, ptr, ptr, ptr, ptr, ptr, ptr, ptr, ptr, ptr, ptr, ptr, ptr, ptr, ptr, ptr, ptr, ptr, ptr, ptr, ptr, ptr, ptr, ptr, ptr, ptr, ptr, ptr, ptr, ptr, ptr, ptr, ptr, ptr, ptr, ptr, ptr, ptr, ptr, ptr, ptr, ptr, ptr, ptr, ptr, ptr, ptr, ptr, ptr, ptr, ptr, ptr, ptr, ptr, ptr, ptr, ptr, ptr, ptr, ptr, ptr, ptr, ptr, ptr, ptr, ptr, ptr, ptr, ptr, ptr, ptr, ptr, ptr, ptr, ptr, ptr, ptr, ptr, ptr, ptr, ptr, ptr, ptr, ptr, ptr, ptr, ptr, ptr, ptr, ptr, ptr, ptr, ptr, ptr, ptr, ptr, ptr, ptr, ptr, ptr, ptr, ptr, ptr, ptr, ptr, ptr, ptr, ptr, ptr, ptr, ptr, ptr, ptr, ptr, ptr, ptr, ptr, ptr, ptr, ptr, ptr, ptr, ptr, ptr, ptr, ptr, ptr, ptr, ptr, ptr, ptr, ptr, ptr, ptr, ptr, ptr, ptr, ptr, ptr, ptr, ptr, ptr, ptr, ptr, ptr, ptr, ptr, ptr, ptr, ptr, ptr, ptr, ptr, ptr, ptr, ptr, ptr, ptr, ptr, ptr, ptr, ptr, ptr, ptr, ptr, ptr, ptr, ptr, ptr, ptr, ptr, ptr, ptr, ptr, ptr, ptr, ptr, ptr, ptr, ptr, ptr, ptr, ptr, ptr, ptr, ptr, ptr, ptr, ptr, ptr, ptr, ptr, ptr, ptr, ptr, ptr, ptr, ptr, ptr, ptr, ptr, ptr, ptr, ptr, ptr, ptr, ptr, ptr, ptr, ptr, ptr, ptr, ptr, ptr, ptr, ptr, ptr, ptr, ptr, ptr, ptr, ptr, ptr, ptr, ptr, ptr, ptr, ptr, ptr, ptr, ptr, ptr, ptr, ptr, ptr, ptr, ptr, ptr, ptr, ptr, ptr, ptr, ptr, ptr, ptr, ptr, ptr, ptr, ptr, ptr, ptr, ptr, ptr, ptr, ptr, ptr, ptr, ptr, ptr, ptr, ptr }
%struct.SqliteDb = type { ptr, ptr, ptr, ptr, ptr, ptr, ptr, ptr, ptr, ptr, i32, ptr, ptr, ptr, ptr, ptr, ptr, ptr, ptr, i32, ptr, ptr, ptr, i32, i32, ptr, i32, i32, i32, i32, i32, i32, i32 }
%struct.DbEvalContext = type { ptr, ptr, ptr, ptr, i32, i32, ptr, ptr }
%struct.SqlPreparedStmt = type { ptr, ptr, ptr, i32, ptr, i32, ptr }

@tclStubsPtr = external global ptr, align 8

; Function Attrs: nounwind uwtable
define internal ptr @dbEvalColumnValue(ptr noundef %0, i32 noundef %1) #0 {
  %3 = alloca ptr, align 8
  %4 = alloca ptr, align 8
  %5 = alloca i32, align 4
  %6 = alloca ptr, align 8
  %7 = alloca i32, align 4
  %8 = alloca ptr, align 8
  %9 = alloca i32, align 4
  %10 = alloca i64, align 8
  store ptr %0, ptr %4, align 8, !tbaa !107
  store i32 %1, ptr %5, align 4, !tbaa !8
  call void @llvm.lifetime.start.p0(i64 8, ptr %6) #10
  %11 = load ptr, ptr %4, align 8, !tbaa !107
  %12 = getelementptr inbounds nuw %struct.DbEvalContext, ptr %11, i32 0, i32 3
  %13 = load ptr, ptr %12, align 8, !tbaa !159
  %14 = getelementptr inbounds nuw %struct.SqlPreparedStmt, ptr %13, i32 0, i32 2
  %15 = load ptr, ptr %14, align 8, !tbaa !160
  store ptr %15, ptr %6, align 8, !tbaa !87
  %16 = load ptr, ptr %6, align 8, !tbaa !87
  %17 = load i32, ptr %5, align 4, !tbaa !8
  %18 = call i32 @sqlite3_column_type(ptr noundef %16, i32 noundef %17)
  switch i32 %18, label %77 [
    i32 4, label %19
    i32 1, label %36
    i32 2, label %59
    i32 5, label %67
  ]

19:                                               ; preds = %2
  call void @llvm.lifetime.start.p0(i64 4, ptr %7) #10
  %20 = load ptr, ptr %6, align 8, !tbaa !87
  %21 = load i32, ptr %5, align 4, !tbaa !8
  %22 = call i32 @sqlite3_column_bytes(ptr noundef %20, i32 noundef %21)
  store i32 %22, ptr %7, align 4, !tbaa !8
  call void @llvm.lifetime.start.p0(i64 8, ptr %8) #10
  %23 = load ptr, ptr %6, align 8, !tbaa !87
  %24 = load i32, ptr %5, align 4, !tbaa !8
  %25 = call ptr @sqlite3_column_blob(ptr noundef %23, i32 noundef %24)
  store ptr %25, ptr %8, align 8, !tbaa !18
  %26 = load ptr, ptr %8, align 8, !tbaa !18
  %27 = icmp ne ptr %26, null
  br i1 %27, label %29, label %28

28:                                               ; preds = %19
  store i32 0, ptr %7, align 4, !tbaa !8
  br label %29

29:                                               ; preds = %28, %19
  %30 = load ptr, ptr @tclStubsPtr, align 8, !tbaa !10
  %31 = getelementptr inbounds nuw %struct.TclStubs, ptr %30, i32 0, i32 52
  %32 = load ptr, ptr %31, align 8, !tbaa !119
  %33 = load ptr, ptr %8, align 8, !tbaa !18
  %34 = load i32, ptr %7, align 4, !tbaa !8
  %35 = call ptr %32(ptr noundef %33, i32 noundef %34)
  store ptr %35, ptr %3, align 8
  store i32 1, ptr %9, align 4
  call void @llvm.lifetime.end.p0(i64 8, ptr %8) #10
  call void @llvm.lifetime.end.p0(i64 4, ptr %7) #10
  br label %85

36:                                               ; preds = %2
  call void @llvm.lifetime.start.p0(i64 8, ptr %10) #10
  %37 = load ptr, ptr %6, align 8, !tbaa !87
  %38 = load i32, ptr %5, align 4, !tbaa !8
  %39 = call i64 @sqlite3_column_int64(ptr noundef %37, i32 noundef %38)
  store i64 %39, ptr %10, align 8, !tbaa !97
  %40 = load i64, ptr %10, align 8, !tbaa !97
  %41 = icmp sge i64 %40, -2147483647
  br i1 %41, label %42, label %52

42:                                               ; preds = %36
  %43 = load i64, ptr %10, align 8, !tbaa !97
  %44 = icmp sle i64 %43, 2147483647
  br i1 %44, label %45, label %52

45:                                               ; preds = %42
  %46 = load ptr, ptr @tclStubsPtr, align 8, !tbaa !10
  %47 = getelementptr inbounds nuw %struct.TclStubs, ptr %46, i32 0, i32 54
  %48 = load ptr, ptr %47, align 8, !tbaa !83
  %49 = load i64, ptr %10, align 8, !tbaa !97
  %50 = trunc i64 %49 to i32
  %51 = call ptr %48(i32 noundef %50)
  store ptr %51, ptr %3, align 8
  store i32 1, ptr %9, align 4
  br label %58

52:                                               ; preds = %42, %36
  %53 = load ptr, ptr @tclStubsPtr, align 8, !tbaa !10
  %54 = getelementptr inbounds nuw %struct.TclStubs, ptr %53, i32 0, i32 490
  %55 = load ptr, ptr %54, align 8, !tbaa !162
  %56 = load i64, ptr %10, align 8, !tbaa !97
  %57 = call ptr %55(i64 noundef %56)
  store ptr %57, ptr %3, align 8
  store i32 1, ptr %9, align 4
  br label %58

58:                                               ; preds = %52, %45
  call void @llvm.lifetime.end.p0(i64 8, ptr %10) #10
  br label %85

59:                                               ; preds = %2
  %60 = load ptr, ptr @tclStubsPtr, align 8, !tbaa !10
  %61 = getelementptr inbounds nuw %struct.TclStubs, ptr %60, i32 0, i32 53
  %62 = load ptr, ptr %61, align 8, !tbaa !163
  %63 = load ptr, ptr %6, align 8, !tbaa !87
  %64 = load i32, ptr %5, align 4, !tbaa !8
  %65 = call double @sqlite3_column_double(ptr noundef %63, i32 noundef %64)
  %66 = call ptr %62(double noundef %65)
  store ptr %66, ptr %3, align 8
  store i32 1, ptr %9, align 4
  br label %85

67:                                               ; preds = %2
  %68 = load ptr, ptr @tclStubsPtr, align 8, !tbaa !10
  %69 = getelementptr inbounds nuw %struct.TclStubs, ptr %68, i32 0, i32 58
  %70 = load ptr, ptr %69, align 8, !tbaa !81
  %71 = load ptr, ptr %4, align 8, !tbaa !107
  %72 = getelementptr inbounds nuw %struct.DbEvalContext, ptr %71, i32 0, i32 0
  %73 = load ptr, ptr %72, align 8, !tbaa !153
  %74 = getelementptr inbounds nuw %struct.SqliteDb, ptr %73, i32 0, i32 11
  %75 = load ptr, ptr %74, align 8, !tbaa !115
  %76 = call ptr %70(ptr noundef %75, i32 noundef -1)
  store ptr %76, ptr %3, align 8
  store i32 1, ptr %9, align 4
  br label %85

77:                                               ; preds = %2
  %78 = load ptr, ptr @tclStubsPtr, align 8, !tbaa !10
  %79 = getelementptr inbounds nuw %struct.TclStubs, ptr %78, i32 0, i32 58
  %80 = load ptr, ptr %79, align 8, !tbaa !81
  %81 = load ptr, ptr %6, align 8, !tbaa !87
  %82 = load i32, ptr %5, align 4, !tbaa !8
  %83 = call ptr @sqlite3_column_text(ptr noundef %81, i32 noundef %82)
  %84 = call ptr %80(ptr noundef %83, i32 noundef -1)
  store ptr %84, ptr %3, align 8
  store i32 1, ptr %9, align 4
  br label %85

85:                                               ; preds = %77, %67, %59, %58, %29
  call void @llvm.lifetime.end.p0(i64 8, ptr %6) #10
  %86 = load ptr, ptr %3, align 8
  ret ptr %86
}