; Function Attrs: nounwind uwtable
define internal fastcc ptr @dbEvalColumnValue(ptr noundef readonly captures(none) %0, i32 noundef %1) unnamed_addr #0 {
  %3 = getelementptr inbounds nuw i8, ptr %0, i64 24
  %4 = load ptr, ptr %3, align 8, !tbaa !139
  %5 = getelementptr inbounds nuw i8, ptr %4, i64 16
  %6 = load ptr, ptr %5, align 8, !tbaa !133
  %7 = tail call i32 @sqlite3_column_type(ptr noundef %6, i32 noundef %1) #14
  switch i32 %7, label %42 [
    i32 4, label %8
    i32 1, label %15
    i32 2, label %28
    i32 5, label %34
  ]

8:                                                ; preds = %2
  %9 = tail call i32 @sqlite3_column_bytes(ptr noundef %6, i32 noundef %1) #14
  %10 = tail call ptr @sqlite3_column_blob(ptr noundef %6, i32 noundef %1) #14
  %.not = icmp eq ptr %10, null
  %spec.select = select i1 %.not, i32 0, i32 %9
  %11 = load ptr, ptr @tclStubsPtr, align 8, !tbaa !3
  %12 = getelementptr inbounds nuw i8, ptr %11, i64 416
  %13 = load ptr, ptr %12, align 8, !tbaa !111
  %14 = tail call ptr %13(ptr noundef %10, i32 noundef %spec.select) #14
  br label %48

15:                                               ; preds = %2
  %16 = tail call i64 @sqlite3_column_int64(ptr noundef %6, i32 noundef %1) #14
  %17 = add i64 %16, 2147483647
  %or.cond = icmp ult i64 %17, 4294967295
  %18 = load ptr, ptr @tclStubsPtr, align 8, !tbaa !3
  br i1 %or.cond, label %19, label %24

19:                                               ; preds = %15
  %20 = getelementptr inbounds nuw i8, ptr %18, i64 432
  %21 = load ptr, ptr %20, align 8, !tbaa !74
  %22 = trunc nsw i64 %16 to i32
  %23 = tail call ptr %21(i32 noundef %22) #14
  br label %48

24:                                               ; preds = %15
  %25 = getelementptr inbounds nuw i8, ptr %18, i64 3920
  %26 = load ptr, ptr %25, align 8, !tbaa !167
  %27 = tail call ptr %26(i64 noundef %16) #14
  br label %48

28:                                               ; preds = %2
  %29 = load ptr, ptr @tclStubsPtr, align 8, !tbaa !3
  %30 = getelementptr inbounds nuw i8, ptr %29, i64 424
  %31 = load ptr, ptr %30, align 8, !tbaa !168
  %32 = tail call double @sqlite3_column_double(ptr noundef %6, i32 noundef %1) #14
  %33 = tail call ptr %31(double noundef %32) #14
  br label %48

34:                                               ; preds = %2
  %35 = load ptr, ptr @tclStubsPtr, align 8, !tbaa !3
  %36 = getelementptr inbounds nuw i8, ptr %35, i64 464
  %37 = load ptr, ptr %36, align 8, !tbaa !72
  %38 = load ptr, ptr %0, align 8, !tbaa !90
  %39 = getelementptr inbounds nuw i8, ptr %38, i64 88
  %40 = load ptr, ptr %39, align 8, !tbaa !107
  %41 = tail call ptr %37(ptr noundef %40, i32 noundef -1) #14
  br label %48

42:                                               ; preds = %2
  %43 = load ptr, ptr @tclStubsPtr, align 8, !tbaa !3
  %44 = getelementptr inbounds nuw i8, ptr %43, i64 464
  %45 = load ptr, ptr %44, align 8, !tbaa !72
  %46 = tail call ptr @sqlite3_column_text(ptr noundef %6, i32 noundef %1) #14
  %47 = tail call ptr %45(ptr noundef %46, i32 noundef -1) #14
  br label %48

48:                                               ; preds = %19, %24, %42, %34, %28, %8
  %.0 = phi ptr [ %47, %42 ], [ %41, %34 ], [ %33, %28 ], [ %14, %8 ], [ %23, %19 ], [ %27, %24 ]
  ret ptr %.0
}